; ModuleID = '51/522.c'
source_filename = "51/522.c"
target datalayout = "e-m:e-p270:32:32-p271:32:32-p272:64:64-i64:64-f80:128-n8:16:32:64-S128"
target triple = "x86_64-pc-linux-gnu"

@.str = private unnamed_addr constant [3 x i8] c"%d\00", align 1
@.str.1 = private unnamed_addr constant [3 x i8] c"NO\00", align 1
@.str.2 = private unnamed_addr constant [4 x i8] c"%d\0A\00", align 1
@.str.3 = private unnamed_addr constant [4 x i8] c"%s\0A\00", align 1

; Function Attrs: noinline nounwind uwtable
define dso_local i32 @main() #0 {
  %1 = alloca i32, align 4
  %2 = alloca i32, align 4
  %3 = alloca i32, align 4
  %4 = alloca i32, align 4
  %5 = alloca i32, align 4
  %6 = alloca [500 x i32], align 16
  %7 = alloca i32, align 4
  %8 = alloca [1000 x i8], align 16
  %9 = alloca [500 x [6 x i8]], align 16
  store i32 0, i32* %1, align 4
  %10 = call i32 (i8*, ...) @__isoc99_scanf(i8* getelementptr inbounds ([3 x i8], [3 x i8]* @.str, i64 0, i64 0), i32* %2)
  %11 = call i32 @getchar()
  %12 = getelementptr inbounds [1000 x i8], [1000 x i8]* %8, i64 0, i64 0
  %13 = call i32 (i8*, ...) bitcast (i32 (...)* @gets to i32 (i8*, ...)*)(i8* %12)
  %14 = getelementptr inbounds [1000 x i8], [1000 x i8]* %8, i64 0, i64 0
  %15 = call i64 @strlen(i8* %14) #3
  %16 = trunc i64 %15 to i32
  store i32 %16, i32* %5, align 4
  store i32 0, i32* %3, align 4
  br label %17

17:                                               ; preds = %55, %0
  %18 = load i32, i32* %3, align 4
  %19 = load i32, i32* %5, align 4
  %20 = load i32, i32* %2, align 4
  %21 = sub nsw i32 %19, %20
  %22 = add nsw i32 %21, 1
  %23 = icmp slt i32 %18, %22
  br i1 %23, label %24, label %58

24:                                               ; preds = %17
  %25 = load i32, i32* %3, align 4
  store i32 %25, i32* %4, align 4
  br label %26

26:                                               ; preds = %45, %24
  %27 = load i32, i32* %4, align 4
  %28 = load i32, i32* %3, align 4
  %29 = load i32, i32* %2, align 4
  %30 = add nsw i32 %28, %29
  %31 = icmp slt i32 %27, %30
  br i1 %31, label %32, label %48

32:                                               ; preds = %26
  %33 = load i32, i32* %4, align 4
  %34 = sext i32 %33 to i64
  %35 = getelementptr inbounds [1000 x i8], [1000 x i8]* %8, i64 0, i64 %34
  %36 = load i8, i8* %35, align 1
  %37 = load i32, i32* %3, align 4
  %38 = sext i32 %37 to i64
  %39 = getelementptr inbounds [500 x [6 x i8]], [500 x [6 x i8]]* %9, i64 0, i64 %38
  %40 = load i32, i32* %4, align 4
  %41 = load i32, i32* %3, align 4
  %42 = sub nsw i32 %40, %41
  %43 = sext i32 %42 to i64
  %44 = getelementptr inbounds [6 x i8], [6 x i8]* %39, i64 0, i64 %43
  store i8 %36, i8* %44, align 1
  br label %45

45:                                               ; preds = %32
  %46 = load i32, i32* %4, align 4
  %47 = add nsw i32 %46, 1
  store i32 %47, i32* %4, align 4
  br label %26

48:                                               ; preds = %26
  %49 = load i32, i32* %3, align 4
  %50 = sext i32 %49 to i64
  %51 = getelementptr inbounds [500 x [6 x i8]], [500 x [6 x i8]]* %9, i64 0, i64 %50
  %52 = load i32, i32* %2, align 4
  %53 = sext i32 %52 to i64
  %54 = getelementptr inbounds [6 x i8], [6 x i8]* %51, i64 0, i64 %53
  store i8 0, i8* %54, align 1
  br label %55

55:                                               ; preds = %48
  %56 = load i32, i32* %3, align 4
  %57 = add nsw i32 %56, 1
  store i32 %57, i32* %3, align 4
  br label %17

58:                                               ; preds = %17
  store i32 0, i32* %3, align 4
  br label %59

59:                                               ; preds = %104, %58
  %60 = load i32, i32* %3, align 4
  %61 = load i32, i32* %5, align 4
  %62 = load i32, i32* %2, align 4
  %63 = sub nsw i32 %61, %62
  %64 = add nsw i32 %63, 1
  %65 = icmp slt i32 %60, %64
  br i1 %65, label %66, label %107

66:                                               ; preds = %59
  %67 = load i32, i32* %3, align 4
  %68 = sext i32 %67 to i64
  %69 = getelementptr inbounds [500 x i32], [500 x i32]* %6, i64 0, i64 %68
  store i32 1, i32* %69, align 4
  %70 = load i32, i32* %3, align 4
  %71 = add nsw i32 %70, 1
  store i32 %71, i32* %4, align 4
  br label %72

72:                                               ; preds = %100, %66
  %73 = load i32, i32* %4, align 4
  %74 = load i32, i32* %5, align 4
  %75 = load i32, i32* %2, align 4
  %76 = sub nsw i32 %74, %75
  %77 = add nsw i32 %76, 1
  %78 = icmp slt i32 %73, %77
  br i1 %78, label %79, label %103

79:                                               ; preds = %72
  %80 = load i32, i32* %3, align 4
  %81 = sext i32 %80 to i64
  %82 = getelementptr inbounds [500 x [6 x i8]], [500 x [6 x i8]]* %9, i64 0, i64 %81
  %83 = getelementptr inbounds [6 x i8], [6 x i8]* %82, i64 0, i64 0
  %84 = load i32, i32* %4, align 4
  %85 = sext i32 %84 to i64
  %86 = getelementptr inbounds [500 x [6 x i8]], [500 x [6 x i8]]* %9, i64 0, i64 %85
  %87 = getelementptr inbounds [6 x i8], [6 x i8]* %86, i64 0, i64 0
  %88 = call i32 @strcmp(i8* %83, i8* %87) #3
  %89 = icmp eq i32 %88, 0
  br i1 %89, label %90, label %99

90:                                               ; preds = %79
  %91 = load i32, i32* %3, align 4
  %92 = sext i32 %91 to i64
  %93 = getelementptr inbounds [500 x i32], [500 x i32]* %6, i64 0, i64 %92
  %94 = load i32, i32* %93, align 4
  %95 = add nsw i32 %94, 1
  %96 = load i32, i32* %3, align 4
  %97 = sext i32 %96 to i64
  %98 = getelementptr inbounds [500 x i32], [500 x i32]* %6, i64 0, i64 %97
  store i32 %95, i32* %98, align 4
  br label %99

99:                                               ; preds = %90, %79
  br label %100

100:                                              ; preds = %99
  %101 = load i32, i32* %4, align 4
  %102 = add nsw i32 %101, 1
  store i32 %102, i32* %4, align 4
  br label %72

103:                                              ; preds = %72
  br label %104

104:                                              ; preds = %103
  %105 = load i32, i32* %3, align 4
  %106 = add nsw i32 %105, 1
  store i32 %106, i32* %3, align 4
  br label %59

107:                                              ; preds = %59
  store i32 0, i32* %7, align 4
  store i32 0, i32* %3, align 4
  br label %108

108:                                              ; preds = %128, %107
  %109 = load i32, i32* %3, align 4
  %110 = load i32, i32* %5, align 4
  %111 = load i32, i32* %2, align 4
  %112 = sub nsw i32 %110, %111
  %113 = add nsw i32 %112, 1
  %114 = icmp slt i32 %109, %113
  br i1 %114, label %115, label %131

115:                                              ; preds = %108
  %116 = load i32, i32* %3, align 4
  %117 = sext i32 %116 to i64
  %118 = getelementptr inbounds [500 x i32], [500 x i32]* %6, i64 0, i64 %117
  %119 = load i32, i32* %118, align 4
  %120 = load i32, i32* %7, align 4
  %121 = icmp sgt i32 %119, %120
  br i1 %121, label %122, label %127

122:                                              ; preds = %115
  %123 = load i32, i32* %3, align 4
  %124 = sext i32 %123 to i64
  %125 = getelementptr inbounds [500 x i32], [500 x i32]* %6, i64 0, i64 %124
  %126 = load i32, i32* %125, align 4
  store i32 %126, i32* %7, align 4
  br label %127

127:                                              ; preds = %122, %115
  br label %128

128:                                              ; preds = %127
  %129 = load i32, i32* %3, align 4
  %130 = add nsw i32 %129, 1
  store i32 %130, i32* %3, align 4
  br label %108

131:                                              ; preds = %108
  %132 = load i32, i32* %7, align 4
  %133 = icmp sle i32 %132, 1
  br i1 %133, label %134, label %136

134:                                              ; preds = %131
  %135 = call i32 (i8*, ...) @printf(i8* getelementptr inbounds ([3 x i8], [3 x i8]* @.str.1, i64 0, i64 0))
  br label %164

136:                                              ; preds = %131
  %137 = load i32, i32* %7, align 4
  %138 = call i32 (i8*, ...) @printf(i8* getelementptr inbounds ([4 x i8], [4 x i8]* @.str.2, i64 0, i64 0), i32 %137)
  store i32 0, i32* %3, align 4
  br label %139

139:                                              ; preds = %160, %136
  %140 = load i32, i32* %3, align 4
  %141 = load i32, i32* %5, align 4
  %142 = load i32, i32* %2, align 4
  %143 = sub nsw i32 %141, %142
  %144 = add nsw i32 %143, 1
  %145 = icmp slt i32 %140, %144
  br i1 %145, label %146, label %163

146:                                              ; preds = %139
  %147 = load i32, i32* %3, align 4
  %148 = sext i32 %147 to i64
  %149 = getelementptr inbounds [500 x i32], [500 x i32]* %6, i64 0, i64 %148
  %150 = load i32, i32* %149, align 4
  %151 = load i32, i32* %7, align 4
  %152 = icmp eq i32 %150, %151
  br i1 %152, label %153, label %159

153:                                              ; preds = %146
  %154 = load i32, i32* %3, align 4
  %155 = sext i32 %154 to i64
  %156 = getelementptr inbounds [500 x [6 x i8]], [500 x [6 x i8]]* %9, i64 0, i64 %155
  %157 = getelementptr inbounds [6 x i8], [6 x i8]* %156, i64 0, i64 0
  %158 = call i32 (i8*, ...) @printf(i8* getelementptr inbounds ([4 x i8], [4 x i8]* @.str.3, i64 0, i64 0), i8* %157)
  br label %159

159:                                              ; preds = %153, %146
  br label %160

160:                                              ; preds = %159
  %161 = load i32, i32* %3, align 4
  %162 = add nsw i32 %161, 1
  store i32 %162, i32* %3, align 4
  br label %139

163:                                              ; preds = %139
  br label %164

164:                                              ; preds = %163, %134
  ret i32 0
}

declare dso_local i32 @__isoc99_scanf(i8*, ...) #1

declare dso_local i32 @getchar() #1

declare dso_local i32 @gets(...) #1

; Function Attrs: nounwind readonly
declare dso_local i64 @strlen(i8*) #2

; Function Attrs: nounwind readonly
declare dso_local i32 @strcmp(i8*, i8*) #2

declare dso_local i32 @printf(i8*, ...) #1


!llvm.module.flags = !{!0}
!llvm.ident = !{!1}

!0 = !{i32 1, !"wchar_size", i32 4}
!1 = !{!"clang version 10.0.0-4ubuntu1 "}
